; Function Attrs: mustprogress uwtable
define void @_ZN19OpenColorIO_v2_5dev10ColorSpace17setAllocationVarsEiPKf(ptr noundef nonnull readonly align 8 captures(none) dereferenceable(8) %0, i32 noundef %1, ptr noundef readonly captures(none) %2) local_unnamed_addr #0 align 2 personality ptr @__gxx_personality_v0 {
  %4 = load ptr, ptr %0, align 8, !tbaa !52
  %5 = getelementptr inbounds nuw i8, ptr %4, i64 200
  %6 = sext i32 %1 to i64
  %7 = getelementptr inbounds nuw i8, ptr %4, i64 208
  %8 = load ptr, ptr %7, align 8, !tbaa !84
  %9 = load ptr, ptr %5, align 8, !tbaa !61
  %10 = ptrtoint ptr %8 to i64
  %11 = ptrtoint ptr %9 to i64
  %12 = sub i64 %10, %11
  %13 = ashr exact i64 %12, 2
  %14 = icmp ult i64 %13, %6
  br i1 %14, label %15, label %17

15:                                               ; preds = %3
  %16 = sub nuw nsw i64 %6, %13
  tail call void @_ZNSt6vectorIfSaIfEE17_M_default_appendEm(ptr noundef nonnull align 8 dereferenceable(24) %5, i64 noundef %16)
  %.pre = load ptr, ptr %0, align 8, !tbaa !52
  %.phi.trans.insert = getelementptr inbounds nuw i8, ptr %.pre, i64 200
  %.pre3 = load ptr, ptr %.phi.trans.insert, align 8, !tbaa !85
  %.phi.trans.insert4 = getelementptr inbounds nuw i8, ptr %.pre, i64 208
  %.pre5 = load ptr, ptr %.phi.trans.insert4, align 8, !tbaa !85
  br label %_ZNSt6vectorIfSaIfEE6resizeEm.exit

17:                                               ; preds = %3
  %18 = icmp ugt i64 %13, %6
  br i1 %18, label %19, label %_ZNSt6vectorIfSaIfEE6resizeEm.exit

19:                                               ; preds = %17
  %20 = getelementptr inbounds nuw float, ptr %9, i64 %6
  %.not.i.i = icmp eq ptr %8, %20
  br i1 %.not.i.i, label %_ZNSt6vectorIfSaIfEE6resizeEm.exit, label %21

21:                                               ; preds = %19
  store ptr %20, ptr %7, align 8, !tbaa !84
  br label %_ZNSt6vectorIfSaIfEE6resizeEm.exit

_ZNSt6vectorIfSaIfEE6resizeEm.exit:               ; preds = %15, %17, %19, %21
  %22 = phi ptr [ %.pre5, %15 ], [ %8, %17 ], [ %8, %19 ], [ %20, %21 ]
  %23 = phi ptr [ %.pre3, %15 ], [ %9, %17 ], [ %9, %19 ], [ %9, %21 ]
  %24 = icmp eq ptr %23, %22
  br i1 %24, label %27, label %25

25:                                               ; preds = %_ZNSt6vectorIfSaIfEE6resizeEm.exit
  %26 = shl nsw i64 %6, 2
  tail call void @llvm.memcpy.p0.p0.i64(ptr nonnull align 4 %23, ptr align 4 %2, i64 %26, i1 false)
  br label %27

27:                                               ; preds = %25, %_ZNSt6vectorIfSaIfEE6resizeEm.exit
  ret void
}